
shellcode_revenge:     file format elf64-x86-64


Disassembly of section .init:

0000000000400490 <_init>:
  400490:	48 83 ec 08          	sub    rsp,0x8
  400494:	48 8b 05 5d 0b 20 00 	mov    rax,QWORD PTR [rip+0x200b5d]        # 600ff8 <_DYNAMIC+0x1d0>
  40049b:	48 85 c0             	test   rax,rax
  40049e:	74 05                	je     4004a5 <_init+0x15>
  4004a0:	e8 4b 00 00 00       	call   4004f0 <__gmon_start__@plt>
  4004a5:	48 83 c4 08          	add    rsp,0x8
  4004a9:	c3                   	ret    

Disassembly of section .plt:

00000000004004b0 <puts@plt-0x10>:
  4004b0:	ff 35 52 0b 20 00    	push   QWORD PTR [rip+0x200b52]        # 601008 <_GLOBAL_OFFSET_TABLE_+0x8>
  4004b6:	ff 25 54 0b 20 00    	jmp    QWORD PTR [rip+0x200b54]        # 601010 <_GLOBAL_OFFSET_TABLE_+0x10>
  4004bc:	0f 1f 40 00          	nop    DWORD PTR [rax+0x0]

00000000004004c0 <puts@plt>:
  4004c0:	ff 25 52 0b 20 00    	jmp    QWORD PTR [rip+0x200b52]        # 601018 <_GLOBAL_OFFSET_TABLE_+0x18>
  4004c6:	68 00 00 00 00       	push   0x0
  4004cb:	e9 e0 ff ff ff       	jmp    4004b0 <_init+0x20>

00000000004004d0 <read@plt>:
  4004d0:	ff 25 4a 0b 20 00    	jmp    QWORD PTR [rip+0x200b4a]        # 601020 <_GLOBAL_OFFSET_TABLE_+0x20>
  4004d6:	68 01 00 00 00       	push   0x1
  4004db:	e9 d0 ff ff ff       	jmp    4004b0 <_init+0x20>

00000000004004e0 <__libc_start_main@plt>:
  4004e0:	ff 25 42 0b 20 00    	jmp    QWORD PTR [rip+0x200b42]        # 601028 <_GLOBAL_OFFSET_TABLE_+0x28>
  4004e6:	68 02 00 00 00       	push   0x2
  4004eb:	e9 c0 ff ff ff       	jmp    4004b0 <_init+0x20>

00000000004004f0 <__gmon_start__@plt>:
  4004f0:	ff 25 3a 0b 20 00    	jmp    QWORD PTR [rip+0x200b3a]        # 601030 <_GLOBAL_OFFSET_TABLE_+0x30>
  4004f6:	68 03 00 00 00       	push   0x3
  4004fb:	e9 b0 ff ff ff       	jmp    4004b0 <_init+0x20>

0000000000400500 <setvbuf@plt>:
  400500:	ff 25 32 0b 20 00    	jmp    QWORD PTR [rip+0x200b32]        # 601038 <_GLOBAL_OFFSET_TABLE_+0x38>
  400506:	68 04 00 00 00       	push   0x4
  40050b:	e9 a0 ff ff ff       	jmp    4004b0 <_init+0x20>

Disassembly of section .text:

0000000000400510 <_start>:
  400510:	31 ed                	xor    ebp,ebp
  400512:	49 89 d1             	mov    r9,rdx
  400515:	5e                   	pop    rsi
  400516:	48 89 e2             	mov    rdx,rsp
  400519:	48 83 e4 f0          	and    rsp,0xfffffffffffffff0
  40051d:	50                   	push   rax
  40051e:	54                   	push   rsp
  40051f:	49 c7 c0 f0 06 40 00 	mov    r8,0x4006f0
  400526:	48 c7 c1 80 06 40 00 	mov    rcx,0x400680
  40052d:	48 c7 c7 fd 05 40 00 	mov    rdi,0x4005fd
  400534:	e8 a7 ff ff ff       	call   4004e0 <__libc_start_main@plt>
  400539:	f4                   	hlt    
  40053a:	66 0f 1f 44 00 00    	nop    WORD PTR [rax+rax*1+0x0]

0000000000400540 <deregister_tm_clones>:
  400540:	b8 57 10 60 00       	mov    eax,0x601057
  400545:	55                   	push   rbp
  400546:	48 2d 50 10 60 00    	sub    rax,0x601050
  40054c:	48 83 f8 0e          	cmp    rax,0xe
  400550:	48 89 e5             	mov    rbp,rsp
  400553:	77 02                	ja     400557 <deregister_tm_clones+0x17>
  400555:	5d                   	pop    rbp
  400556:	c3                   	ret    
  400557:	b8 00 00 00 00       	mov    eax,0x0
  40055c:	48 85 c0             	test   rax,rax
  40055f:	74 f4                	je     400555 <deregister_tm_clones+0x15>
  400561:	5d                   	pop    rbp
  400562:	bf 50 10 60 00       	mov    edi,0x601050
  400567:	ff e0                	jmp    rax
  400569:	0f 1f 80 00 00 00 00 	nop    DWORD PTR [rax+0x0]

0000000000400570 <register_tm_clones>:
  400570:	b8 50 10 60 00       	mov    eax,0x601050
  400575:	55                   	push   rbp
  400576:	48 2d 50 10 60 00    	sub    rax,0x601050
  40057c:	48 c1 f8 03          	sar    rax,0x3
  400580:	48 89 e5             	mov    rbp,rsp
  400583:	48 89 c2             	mov    rdx,rax
  400586:	48 c1 ea 3f          	shr    rdx,0x3f
  40058a:	48 01 d0             	add    rax,rdx
  40058d:	48 d1 f8             	sar    rax,1
  400590:	75 02                	jne    400594 <register_tm_clones+0x24>
  400592:	5d                   	pop    rbp
  400593:	c3                   	ret    
  400594:	ba 00 00 00 00       	mov    edx,0x0
  400599:	48 85 d2             	test   rdx,rdx
  40059c:	74 f4                	je     400592 <register_tm_clones+0x22>
  40059e:	5d                   	pop    rbp
  40059f:	48 89 c6             	mov    rsi,rax
  4005a2:	bf 50 10 60 00       	mov    edi,0x601050
  4005a7:	ff e2                	jmp    rdx
  4005a9:	0f 1f 80 00 00 00 00 	nop    DWORD PTR [rax+0x0]

00000000004005b0 <__do_global_dtors_aux>:
  4005b0:	80 3d a1 0a 20 00 00 	cmp    BYTE PTR [rip+0x200aa1],0x0        # 601058 <completed.6973>
  4005b7:	75 11                	jne    4005ca <__do_global_dtors_aux+0x1a>
  4005b9:	55                   	push   rbp
  4005ba:	48 89 e5             	mov    rbp,rsp
  4005bd:	e8 7e ff ff ff       	call   400540 <deregister_tm_clones>
  4005c2:	5d                   	pop    rbp
  4005c3:	c6 05 8e 0a 20 00 01 	mov    BYTE PTR [rip+0x200a8e],0x1        # 601058 <completed.6973>
  4005ca:	f3 c3                	repz ret 
  4005cc:	0f 1f 40 00          	nop    DWORD PTR [rax+0x0]

00000000004005d0 <frame_dummy>:
  4005d0:	48 83 3d 48 08 20 00 	cmp    QWORD PTR [rip+0x200848],0x0        # 600e20 <__JCR_END__>
  4005d7:	00 
  4005d8:	74 1e                	je     4005f8 <frame_dummy+0x28>
  4005da:	b8 00 00 00 00       	mov    eax,0x0
  4005df:	48 85 c0             	test   rax,rax
  4005e2:	74 14                	je     4005f8 <frame_dummy+0x28>
  4005e4:	55                   	push   rbp
  4005e5:	bf 20 0e 60 00       	mov    edi,0x600e20
  4005ea:	48 89 e5             	mov    rbp,rsp
  4005ed:	ff d0                	call   rax
  4005ef:	5d                   	pop    rbp
  4005f0:	e9 7b ff ff ff       	jmp    400570 <register_tm_clones>
  4005f5:	0f 1f 00             	nop    DWORD PTR [rax]
  4005f8:	e9 73 ff ff ff       	jmp    400570 <register_tm_clones>

00000000004005fd <main>:
  4005fd:	55                   	push   rbp
  4005fe:	48 89 e5             	mov    rbp,rsp
  400601:	48 83 ec 10          	sub    rsp,0x10
  400605:	48 8b 05 44 0a 20 00 	mov    rax,QWORD PTR [rip+0x200a44]        # 601050 <__TMC_END__>
  40060c:	b9 00 00 00 00       	mov    ecx,0x0
  400611:	ba 02 00 00 00       	mov    edx,0x2
  400616:	be 00 00 00 00       	mov    esi,0x0
  40061b:	48 89 c7             	mov    rdi,rax
  40061e:	e8 dd fe ff ff       	call   400500 <setvbuf@plt>
  400623:	bf 08 07 40 00       	mov    edi,0x400708
  400628:	e8 93 fe ff ff       	call   4004c0 <puts@plt>
  40062d:	bf 58 07 40 00       	mov    edi,0x400758
  400632:	e8 89 fe ff ff       	call   4004c0 <puts@plt>
  400637:	48 c7 45 f8 59 10 60 	mov    QWORD PTR [rbp-0x8],0x601059
  40063e:	00 
  40063f:	ba 06 00 00 00       	mov    edx,0x6
  400644:	be 59 10 60 00       	mov    esi,0x601059
  400649:	bf 00 00 00 00       	mov    edi,0x0
  40064e:	b8 00 00 00 00       	mov    eax,0x0
  400653:	e8 78 fe ff ff       	call   4004d0 <read@plt>
  400658:	bf 88 07 40 00       	mov    edi,0x400788
  40065d:	e8 5e fe ff ff       	call   4004c0 <puts@plt>
  400662:	48 8b 55 f8          	mov    rdx,QWORD PTR [rbp-0x8]
  400666:	b8 00 00 00 00       	mov    eax,0x0
  40066b:	ff d2                	call   rdx
  40066d:	b8 00 00 00 00       	mov    eax,0x0
  400672:	c9                   	leave  
  400673:	c3                   	ret    
  400674:	66 2e 0f 1f 84 00 00 	nop    WORD PTR cs:[rax+rax*1+0x0]
  40067b:	00 00 00 
  40067e:	66 90                	xchg   ax,ax

0000000000400680 <__libc_csu_init>:
  400680:	41 57                	push   r15
  400682:	41 89 ff             	mov    r15d,edi
  400685:	41 56                	push   r14
  400687:	49 89 f6             	mov    r14,rsi
  40068a:	41 55                	push   r13
  40068c:	49 89 d5             	mov    r13,rdx
  40068f:	41 54                	push   r12
  400691:	4c 8d 25 78 07 20 00 	lea    r12,[rip+0x200778]        # 600e10 <__frame_dummy_init_array_entry>
  400698:	55                   	push   rbp
  400699:	48 8d 2d 78 07 20 00 	lea    rbp,[rip+0x200778]        # 600e18 <__init_array_end>
  4006a0:	53                   	push   rbx
  4006a1:	4c 29 e5             	sub    rbp,r12
  4006a4:	31 db                	xor    ebx,ebx
  4006a6:	48 c1 fd 03          	sar    rbp,0x3
  4006aa:	48 83 ec 08          	sub    rsp,0x8
  4006ae:	e8 dd fd ff ff       	call   400490 <_init>
  4006b3:	48 85 ed             	test   rbp,rbp
  4006b6:	74 1e                	je     4006d6 <__libc_csu_init+0x56>
  4006b8:	0f 1f 84 00 00 00 00 	nop    DWORD PTR [rax+rax*1+0x0]
  4006bf:	00 
  4006c0:	4c 89 ea             	mov    rdx,r13
  4006c3:	4c 89 f6             	mov    rsi,r14
  4006c6:	44 89 ff             	mov    edi,r15d
  4006c9:	41 ff 14 dc          	call   QWORD PTR [r12+rbx*8]
  4006cd:	48 83 c3 01          	add    rbx,0x1
  4006d1:	48 39 eb             	cmp    rbx,rbp
  4006d4:	75 ea                	jne    4006c0 <__libc_csu_init+0x40>
  4006d6:	48 83 c4 08          	add    rsp,0x8
  4006da:	5b                   	pop    rbx
  4006db:	5d                   	pop    rbp
  4006dc:	41 5c                	pop    r12
  4006de:	41 5d                	pop    r13
  4006e0:	41 5e                	pop    r14
  4006e2:	41 5f                	pop    r15
  4006e4:	c3                   	ret    
  4006e5:	66 66 2e 0f 1f 84 00 	data16 nop WORD PTR cs:[rax+rax*1+0x0]
  4006ec:	00 00 00 00 

00000000004006f0 <__libc_csu_fini>:
  4006f0:	f3 c3                	repz ret 

Disassembly of section .fini:

00000000004006f4 <_fini>:
  4006f4:	48 83 ec 08          	sub    rsp,0x8
  4006f8:	48 83 c4 08          	add    rsp,0x8
  4006fc:	c3                   	ret    
