
./baby_bof:     file format elf64-x86-64


Disassembly of section .init:

00000000004004c8 <_init>:
  4004c8:	48 83 ec 08          	sub    $0x8,%rsp
  4004cc:	48 8b 05 25 0b 20 00 	mov    0x200b25(%rip),%rax        # 600ff8 <_DYNAMIC+0x1d0>
  4004d3:	48 85 c0             	test   %rax,%rax
  4004d6:	74 05                	je     4004dd <_init+0x15>
  4004d8:	e8 53 00 00 00       	callq  400530 <__gmon_start__@plt>
  4004dd:	48 83 c4 08          	add    $0x8,%rsp
  4004e1:	c3                   	retq   

Disassembly of section .plt:

00000000004004f0 <puts@plt-0x10>:
  4004f0:	ff 35 12 0b 20 00    	pushq  0x200b12(%rip)        # 601008 <_GLOBAL_OFFSET_TABLE_+0x8>
  4004f6:	ff 25 14 0b 20 00    	jmpq   *0x200b14(%rip)        # 601010 <_GLOBAL_OFFSET_TABLE_+0x10>
  4004fc:	0f 1f 40 00          	nopl   0x0(%rax)

0000000000400500 <puts@plt>:
  400500:	ff 25 12 0b 20 00    	jmpq   *0x200b12(%rip)        # 601018 <_GLOBAL_OFFSET_TABLE_+0x18>
  400506:	68 00 00 00 00       	pushq  $0x0
  40050b:	e9 e0 ff ff ff       	jmpq   4004f0 <_init+0x28>

0000000000400510 <system@plt>:
  400510:	ff 25 0a 0b 20 00    	jmpq   *0x200b0a(%rip)        # 601020 <_GLOBAL_OFFSET_TABLE_+0x20>
  400516:	68 01 00 00 00       	pushq  $0x1
  40051b:	e9 d0 ff ff ff       	jmpq   4004f0 <_init+0x28>

0000000000400520 <__libc_start_main@plt>:
  400520:	ff 25 02 0b 20 00    	jmpq   *0x200b02(%rip)        # 601028 <_GLOBAL_OFFSET_TABLE_+0x28>
  400526:	68 02 00 00 00       	pushq  $0x2
  40052b:	e9 c0 ff ff ff       	jmpq   4004f0 <_init+0x28>

0000000000400530 <__gmon_start__@plt>:
  400530:	ff 25 fa 0a 20 00    	jmpq   *0x200afa(%rip)        # 601030 <_GLOBAL_OFFSET_TABLE_+0x30>
  400536:	68 03 00 00 00       	pushq  $0x3
  40053b:	e9 b0 ff ff ff       	jmpq   4004f0 <_init+0x28>

0000000000400540 <gets@plt>:
  400540:	ff 25 f2 0a 20 00    	jmpq   *0x200af2(%rip)        # 601038 <_GLOBAL_OFFSET_TABLE_+0x38>
  400546:	68 04 00 00 00       	pushq  $0x4
  40054b:	e9 a0 ff ff ff       	jmpq   4004f0 <_init+0x28>

0000000000400550 <setvbuf@plt>:
  400550:	ff 25 ea 0a 20 00    	jmpq   *0x200aea(%rip)        # 601040 <_GLOBAL_OFFSET_TABLE_+0x40>
  400556:	68 05 00 00 00       	pushq  $0x5
  40055b:	e9 90 ff ff ff       	jmpq   4004f0 <_init+0x28>

Disassembly of section .text:

0000000000400560 <_start>:
  400560:	31 ed                	xor    %ebp,%ebp
  400562:	49 89 d1             	mov    %rdx,%r9
  400565:	5e                   	pop    %rsi
  400566:	48 89 e2             	mov    %rsp,%rdx
  400569:	48 83 e4 f0          	and    $0xfffffffffffffff0,%rsp
  40056d:	50                   	push   %rax
  40056e:	54                   	push   %rsp
  40056f:	49 c7 c0 20 07 40 00 	mov    $0x400720,%r8
  400576:	48 c7 c1 b0 06 40 00 	mov    $0x4006b0,%rcx
  40057d:	48 c7 c7 62 06 40 00 	mov    $0x400662,%rdi
  400584:	e8 97 ff ff ff       	callq  400520 <__libc_start_main@plt>
  400589:	f4                   	hlt    
  40058a:	66 0f 1f 44 00 00    	nopw   0x0(%rax,%rax,1)

0000000000400590 <deregister_tm_clones>:
  400590:	b8 5f 10 60 00       	mov    $0x60105f,%eax
  400595:	55                   	push   %rbp
  400596:	48 2d 58 10 60 00    	sub    $0x601058,%rax
  40059c:	48 83 f8 0e          	cmp    $0xe,%rax
  4005a0:	48 89 e5             	mov    %rsp,%rbp
  4005a3:	77 02                	ja     4005a7 <deregister_tm_clones+0x17>
  4005a5:	5d                   	pop    %rbp
  4005a6:	c3                   	retq   
  4005a7:	b8 00 00 00 00       	mov    $0x0,%eax
  4005ac:	48 85 c0             	test   %rax,%rax
  4005af:	74 f4                	je     4005a5 <deregister_tm_clones+0x15>
  4005b1:	5d                   	pop    %rbp
  4005b2:	bf 58 10 60 00       	mov    $0x601058,%edi
  4005b7:	ff e0                	jmpq   *%rax
  4005b9:	0f 1f 80 00 00 00 00 	nopl   0x0(%rax)

00000000004005c0 <register_tm_clones>:
  4005c0:	b8 58 10 60 00       	mov    $0x601058,%eax
  4005c5:	55                   	push   %rbp
  4005c6:	48 2d 58 10 60 00    	sub    $0x601058,%rax
  4005cc:	48 c1 f8 03          	sar    $0x3,%rax
  4005d0:	48 89 e5             	mov    %rsp,%rbp
  4005d3:	48 89 c2             	mov    %rax,%rdx
  4005d6:	48 c1 ea 3f          	shr    $0x3f,%rdx
  4005da:	48 01 d0             	add    %rdx,%rax
  4005dd:	48 d1 f8             	sar    %rax
  4005e0:	75 02                	jne    4005e4 <register_tm_clones+0x24>
  4005e2:	5d                   	pop    %rbp
  4005e3:	c3                   	retq   
  4005e4:	ba 00 00 00 00       	mov    $0x0,%edx
  4005e9:	48 85 d2             	test   %rdx,%rdx
  4005ec:	74 f4                	je     4005e2 <register_tm_clones+0x22>
  4005ee:	5d                   	pop    %rbp
  4005ef:	48 89 c6             	mov    %rax,%rsi
  4005f2:	bf 58 10 60 00       	mov    $0x601058,%edi
  4005f7:	ff e2                	jmpq   *%rdx
  4005f9:	0f 1f 80 00 00 00 00 	nopl   0x0(%rax)

0000000000400600 <__do_global_dtors_aux>:
  400600:	80 3d 61 0a 20 00 00 	cmpb   $0x0,0x200a61(%rip)        # 601068 <completed.6973>
  400607:	75 11                	jne    40061a <__do_global_dtors_aux+0x1a>
  400609:	55                   	push   %rbp
  40060a:	48 89 e5             	mov    %rsp,%rbp
  40060d:	e8 7e ff ff ff       	callq  400590 <deregister_tm_clones>
  400612:	5d                   	pop    %rbp
  400613:	c6 05 4e 0a 20 00 01 	movb   $0x1,0x200a4e(%rip)        # 601068 <completed.6973>
  40061a:	f3 c3                	repz retq 
  40061c:	0f 1f 40 00          	nopl   0x0(%rax)

0000000000400620 <frame_dummy>:
  400620:	48 83 3d f8 07 20 00 	cmpq   $0x0,0x2007f8(%rip)        # 600e20 <__JCR_END__>
  400627:	00 
  400628:	74 1e                	je     400648 <frame_dummy+0x28>
  40062a:	b8 00 00 00 00       	mov    $0x0,%eax
  40062f:	48 85 c0             	test   %rax,%rax
  400632:	74 14                	je     400648 <frame_dummy+0x28>
  400634:	55                   	push   %rbp
  400635:	bf 20 0e 60 00       	mov    $0x600e20,%edi
  40063a:	48 89 e5             	mov    %rsp,%rbp
  40063d:	ff d0                	callq  *%rax
  40063f:	5d                   	pop    %rbp
  400640:	e9 7b ff ff ff       	jmpq   4005c0 <register_tm_clones>
  400645:	0f 1f 00             	nopl   (%rax)
  400648:	e9 73 ff ff ff       	jmpq   4005c0 <register_tm_clones>

000000000040064d <you_cant_see_this_its_too_evil>:
  40064d:	55                   	push   %rbp
  40064e:	48 89 e5             	mov    %rsp,%rbp
  400651:	bf 38 07 40 00       	mov    $0x400738,%edi
  400656:	b8 00 00 00 00       	mov    $0x0,%eax
  40065b:	e8 b0 fe ff ff       	callq  400510 <system@plt>
  400660:	5d                   	pop    %rbp
  400661:	c3                   	retq   

0000000000400662 <main>:
  400662:	55                   	push   %rbp
  400663:	48 89 e5             	mov    %rsp,%rbp
  400666:	48 83 ec 20          	sub    $0x20,%rsp
  40066a:	48 8b 05 ef 09 20 00 	mov    0x2009ef(%rip),%rax        # 601060 <stdout@@GLIBC_2.2.5>
  400671:	b9 00 00 00 00       	mov    $0x0,%ecx
  400676:	ba 02 00 00 00       	mov    $0x2,%edx
  40067b:	be 00 00 00 00       	mov    $0x0,%esi
  400680:	48 89 c7             	mov    %rax,%rdi
  400683:	e8 c8 fe ff ff       	callq  400550 <setvbuf@plt>
  400688:	bf 40 07 40 00       	mov    $0x400740,%edi
  40068d:	e8 6e fe ff ff       	callq  400500 <puts@plt>
  400692:	48 8d 45 e0          	lea    -0x20(%rbp),%rax
  400696:	48 89 c7             	mov    %rax,%rdi
  400699:	e8 a2 fe ff ff       	callq  400540 <gets@plt>
  40069e:	b8 00 00 00 00       	mov    $0x0,%eax
  4006a3:	c9                   	leaveq 
  4006a4:	c3                   	retq   
  4006a5:	66 2e 0f 1f 84 00 00 	nopw   %cs:0x0(%rax,%rax,1)
  4006ac:	00 00 00 
  4006af:	90                   	nop

00000000004006b0 <__libc_csu_init>:
  4006b0:	41 57                	push   %r15
  4006b2:	41 89 ff             	mov    %edi,%r15d
  4006b5:	41 56                	push   %r14
  4006b7:	49 89 f6             	mov    %rsi,%r14
  4006ba:	41 55                	push   %r13
  4006bc:	49 89 d5             	mov    %rdx,%r13
  4006bf:	41 54                	push   %r12
  4006c1:	4c 8d 25 48 07 20 00 	lea    0x200748(%rip),%r12        # 600e10 <__frame_dummy_init_array_entry>
  4006c8:	55                   	push   %rbp
  4006c9:	48 8d 2d 48 07 20 00 	lea    0x200748(%rip),%rbp        # 600e18 <__init_array_end>
  4006d0:	53                   	push   %rbx
  4006d1:	4c 29 e5             	sub    %r12,%rbp
  4006d4:	31 db                	xor    %ebx,%ebx
  4006d6:	48 c1 fd 03          	sar    $0x3,%rbp
  4006da:	48 83 ec 08          	sub    $0x8,%rsp
  4006de:	e8 e5 fd ff ff       	callq  4004c8 <_init>
  4006e3:	48 85 ed             	test   %rbp,%rbp
  4006e6:	74 1e                	je     400706 <__libc_csu_init+0x56>
  4006e8:	0f 1f 84 00 00 00 00 	nopl   0x0(%rax,%rax,1)
  4006ef:	00 
  4006f0:	4c 89 ea             	mov    %r13,%rdx
  4006f3:	4c 89 f6             	mov    %r14,%rsi
  4006f6:	44 89 ff             	mov    %r15d,%edi
  4006f9:	41 ff 14 dc          	callq  *(%r12,%rbx,8)
  4006fd:	48 83 c3 01          	add    $0x1,%rbx
  400701:	48 39 eb             	cmp    %rbp,%rbx
  400704:	75 ea                	jne    4006f0 <__libc_csu_init+0x40>
  400706:	48 83 c4 08          	add    $0x8,%rsp
  40070a:	5b                   	pop    %rbx
  40070b:	5d                   	pop    %rbp
  40070c:	41 5c                	pop    %r12
  40070e:	41 5d                	pop    %r13
  400710:	41 5e                	pop    %r14
  400712:	41 5f                	pop    %r15
  400714:	c3                   	retq   
  400715:	66 66 2e 0f 1f 84 00 	data16 nopw %cs:0x0(%rax,%rax,1)
  40071c:	00 00 00 00 

0000000000400720 <__libc_csu_fini>:
  400720:	f3 c3                	repz retq 

Disassembly of section .fini:

0000000000400724 <_fini>:
  400724:	48 83 ec 08          	sub    $0x8,%rsp
  400728:	48 83 c4 08          	add    $0x8,%rsp
  40072c:	c3                   	retq   
