
shellcode:     file format elf64-x86-64


Disassembly of section .init:

0000000000400498 <_init>:
  400498:	48 83 ec 08          	sub    rsp,0x8
  40049c:	48 8b 05 55 0b 20 00 	mov    rax,QWORD PTR [rip+0x200b55]        # 600ff8 <_DYNAMIC+0x1d0>
  4004a3:	48 85 c0             	test   rax,rax
  4004a6:	74 05                	je     4004ad <_init+0x15>
  4004a8:	e8 53 00 00 00       	call   400500 <__gmon_start__@plt>
  4004ad:	48 83 c4 08          	add    rsp,0x8
  4004b1:	c3                   	ret    

Disassembly of section .plt:

00000000004004c0 <printf@plt-0x10>:
  4004c0:	ff 35 42 0b 20 00    	push   QWORD PTR [rip+0x200b42]        # 601008 <_GLOBAL_OFFSET_TABLE_+0x8>
  4004c6:	ff 25 44 0b 20 00    	jmp    QWORD PTR [rip+0x200b44]        # 601010 <_GLOBAL_OFFSET_TABLE_+0x10>
  4004cc:	0f 1f 40 00          	nop    DWORD PTR [rax+0x0]

00000000004004d0 <printf@plt>:
  4004d0:	ff 25 42 0b 20 00    	jmp    QWORD PTR [rip+0x200b42]        # 601018 <_GLOBAL_OFFSET_TABLE_+0x18>
  4004d6:	68 00 00 00 00       	push   0x0
  4004db:	e9 e0 ff ff ff       	jmp    4004c0 <_init+0x28>

00000000004004e0 <read@plt>:
  4004e0:	ff 25 3a 0b 20 00    	jmp    QWORD PTR [rip+0x200b3a]        # 601020 <_GLOBAL_OFFSET_TABLE_+0x20>
  4004e6:	68 01 00 00 00       	push   0x1
  4004eb:	e9 d0 ff ff ff       	jmp    4004c0 <_init+0x28>

00000000004004f0 <__libc_start_main@plt>:
  4004f0:	ff 25 32 0b 20 00    	jmp    QWORD PTR [rip+0x200b32]        # 601028 <_GLOBAL_OFFSET_TABLE_+0x28>
  4004f6:	68 02 00 00 00       	push   0x2
  4004fb:	e9 c0 ff ff ff       	jmp    4004c0 <_init+0x28>

0000000000400500 <__gmon_start__@plt>:
  400500:	ff 25 2a 0b 20 00    	jmp    QWORD PTR [rip+0x200b2a]        # 601030 <_GLOBAL_OFFSET_TABLE_+0x30>
  400506:	68 03 00 00 00       	push   0x3
  40050b:	e9 b0 ff ff ff       	jmp    4004c0 <_init+0x28>

0000000000400510 <setvbuf@plt>:
  400510:	ff 25 22 0b 20 00    	jmp    QWORD PTR [rip+0x200b22]        # 601038 <_GLOBAL_OFFSET_TABLE_+0x38>
  400516:	68 04 00 00 00       	push   0x4
  40051b:	e9 a0 ff ff ff       	jmp    4004c0 <_init+0x28>

Disassembly of section .text:

0000000000400520 <_start>:
  400520:	31 ed                	xor    ebp,ebp
  400522:	49 89 d1             	mov    r9,rdx
  400525:	5e                   	pop    rsi
  400526:	48 89 e2             	mov    rdx,rsp
  400529:	48 83 e4 f0          	and    rsp,0xfffffffffffffff0
  40052d:	50                   	push   rax
  40052e:	54                   	push   rsp
  40052f:	49 c7 c0 e0 06 40 00 	mov    r8,0x4006e0
  400536:	48 c7 c1 70 06 40 00 	mov    rcx,0x400670
  40053d:	48 c7 c7 0d 06 40 00 	mov    rdi,0x40060d
  400544:	e8 a7 ff ff ff       	call   4004f0 <__libc_start_main@plt>
  400549:	f4                   	hlt    
  40054a:	66 0f 1f 44 00 00    	nop    WORD PTR [rax+rax*1+0x0]

0000000000400550 <deregister_tm_clones>:
  400550:	b8 57 10 60 00       	mov    eax,0x601057
  400555:	55                   	push   rbp
  400556:	48 2d 50 10 60 00    	sub    rax,0x601050
  40055c:	48 83 f8 0e          	cmp    rax,0xe
  400560:	48 89 e5             	mov    rbp,rsp
  400563:	77 02                	ja     400567 <deregister_tm_clones+0x17>
  400565:	5d                   	pop    rbp
  400566:	c3                   	ret    
  400567:	b8 00 00 00 00       	mov    eax,0x0
  40056c:	48 85 c0             	test   rax,rax
  40056f:	74 f4                	je     400565 <deregister_tm_clones+0x15>
  400571:	5d                   	pop    rbp
  400572:	bf 50 10 60 00       	mov    edi,0x601050
  400577:	ff e0                	jmp    rax
  400579:	0f 1f 80 00 00 00 00 	nop    DWORD PTR [rax+0x0]

0000000000400580 <register_tm_clones>:
  400580:	b8 50 10 60 00       	mov    eax,0x601050
  400585:	55                   	push   rbp
  400586:	48 2d 50 10 60 00    	sub    rax,0x601050
  40058c:	48 c1 f8 03          	sar    rax,0x3
  400590:	48 89 e5             	mov    rbp,rsp
  400593:	48 89 c2             	mov    rdx,rax
  400596:	48 c1 ea 3f          	shr    rdx,0x3f
  40059a:	48 01 d0             	add    rax,rdx
  40059d:	48 d1 f8             	sar    rax,1
  4005a0:	75 02                	jne    4005a4 <register_tm_clones+0x24>
  4005a2:	5d                   	pop    rbp
  4005a3:	c3                   	ret    
  4005a4:	ba 00 00 00 00       	mov    edx,0x0
  4005a9:	48 85 d2             	test   rdx,rdx
  4005ac:	74 f4                	je     4005a2 <register_tm_clones+0x22>
  4005ae:	5d                   	pop    rbp
  4005af:	48 89 c6             	mov    rsi,rax
  4005b2:	bf 50 10 60 00       	mov    edi,0x601050
  4005b7:	ff e2                	jmp    rdx
  4005b9:	0f 1f 80 00 00 00 00 	nop    DWORD PTR [rax+0x0]

00000000004005c0 <__do_global_dtors_aux>:
  4005c0:	80 3d 91 0a 20 00 00 	cmp    BYTE PTR [rip+0x200a91],0x0        # 601058 <completed.6973>
  4005c7:	75 11                	jne    4005da <__do_global_dtors_aux+0x1a>
  4005c9:	55                   	push   rbp
  4005ca:	48 89 e5             	mov    rbp,rsp
  4005cd:	e8 7e ff ff ff       	call   400550 <deregister_tm_clones>
  4005d2:	5d                   	pop    rbp
  4005d3:	c6 05 7e 0a 20 00 01 	mov    BYTE PTR [rip+0x200a7e],0x1        # 601058 <completed.6973>
  4005da:	f3 c3                	repz ret 
  4005dc:	0f 1f 40 00          	nop    DWORD PTR [rax+0x0]

00000000004005e0 <frame_dummy>:
  4005e0:	48 83 3d 38 08 20 00 	cmp    QWORD PTR [rip+0x200838],0x0        # 600e20 <__JCR_END__>
  4005e7:	00 
  4005e8:	74 1e                	je     400608 <frame_dummy+0x28>
  4005ea:	b8 00 00 00 00       	mov    eax,0x0
  4005ef:	48 85 c0             	test   rax,rax
  4005f2:	74 14                	je     400608 <frame_dummy+0x28>
  4005f4:	55                   	push   rbp
  4005f5:	bf 20 0e 60 00       	mov    edi,0x600e20
  4005fa:	48 89 e5             	mov    rbp,rsp
  4005fd:	ff d0                	call   rax
  4005ff:	5d                   	pop    rbp
  400600:	e9 7b ff ff ff       	jmp    400580 <register_tm_clones>
  400605:	0f 1f 00             	nop    DWORD PTR [rax]
  400608:	e9 73 ff ff ff       	jmp    400580 <register_tm_clones>

000000000040060d <main>:
  40060d:	55                   	push   rbp
  40060e:	48 89 e5             	mov    rbp,rsp
  400611:	48 83 ec 70          	sub    rsp,0x70
  400615:	48 8b 05 34 0a 20 00 	mov    rax,QWORD PTR [rip+0x200a34]        # 601050 <__TMC_END__>
  40061c:	b9 00 00 00 00       	mov    ecx,0x0
  400621:	ba 02 00 00 00       	mov    edx,0x2
  400626:	be 00 00 00 00       	mov    esi,0x0
  40062b:	48 89 c7             	mov    rdi,rax
  40062e:	e8 dd fe ff ff       	call   400510 <setvbuf@plt>
  400633:	48 8d 45 90          	lea    rax,[rbp-0x70]
  400637:	48 89 c6             	mov    rsi,rax
  40063a:	bf f8 06 40 00       	mov    edi,0x4006f8
  40063f:	b8 00 00 00 00       	mov    eax,0x0
  400644:	e8 87 fe ff ff       	call   4004d0 <printf@plt>
  400649:	48 8d 45 90          	lea    rax,[rbp-0x70]
  40064d:	ba 80 00 00 00       	mov    edx,0x80
  400652:	48 89 c6             	mov    rsi,rax
  400655:	bf 00 00 00 00       	mov    edi,0x0
  40065a:	b8 00 00 00 00       	mov    eax,0x0
  40065f:	e8 7c fe ff ff       	call   4004e0 <read@plt>
  400664:	b8 00 00 00 00       	mov    eax,0x0
  400669:	c9                   	leave  
  40066a:	c3                   	ret    
  40066b:	0f 1f 44 00 00       	nop    DWORD PTR [rax+rax*1+0x0]

0000000000400670 <__libc_csu_init>:
  400670:	41 57                	push   r15
  400672:	41 89 ff             	mov    r15d,edi
  400675:	41 56                	push   r14
  400677:	49 89 f6             	mov    r14,rsi
  40067a:	41 55                	push   r13
  40067c:	49 89 d5             	mov    r13,rdx
  40067f:	41 54                	push   r12
  400681:	4c 8d 25 88 07 20 00 	lea    r12,[rip+0x200788]        # 600e10 <__frame_dummy_init_array_entry>
  400688:	55                   	push   rbp
  400689:	48 8d 2d 88 07 20 00 	lea    rbp,[rip+0x200788]        # 600e18 <__init_array_end>
  400690:	53                   	push   rbx
  400691:	4c 29 e5             	sub    rbp,r12
  400694:	31 db                	xor    ebx,ebx
  400696:	48 c1 fd 03          	sar    rbp,0x3
  40069a:	48 83 ec 08          	sub    rsp,0x8
  40069e:	e8 f5 fd ff ff       	call   400498 <_init>
  4006a3:	48 85 ed             	test   rbp,rbp
  4006a6:	74 1e                	je     4006c6 <__libc_csu_init+0x56>
  4006a8:	0f 1f 84 00 00 00 00 	nop    DWORD PTR [rax+rax*1+0x0]
  4006af:	00 
  4006b0:	4c 89 ea             	mov    rdx,r13
  4006b3:	4c 89 f6             	mov    rsi,r14
  4006b6:	44 89 ff             	mov    edi,r15d
  4006b9:	41 ff 14 dc          	call   QWORD PTR [r12+rbx*8]
  4006bd:	48 83 c3 01          	add    rbx,0x1
  4006c1:	48 39 eb             	cmp    rbx,rbp
  4006c4:	75 ea                	jne    4006b0 <__libc_csu_init+0x40>
  4006c6:	48 83 c4 08          	add    rsp,0x8
  4006ca:	5b                   	pop    rbx
  4006cb:	5d                   	pop    rbp
  4006cc:	41 5c                	pop    r12
  4006ce:	41 5d                	pop    r13
  4006d0:	41 5e                	pop    r14
  4006d2:	41 5f                	pop    r15
  4006d4:	c3                   	ret    
  4006d5:	66 66 2e 0f 1f 84 00 	data16 nop WORD PTR cs:[rax+rax*1+0x0]
  4006dc:	00 00 00 00 

00000000004006e0 <__libc_csu_fini>:
  4006e0:	f3 c3                	repz ret 

Disassembly of section .fini:

00000000004006e4 <_fini>:
  4006e4:	48 83 ec 08          	sub    rsp,0x8
  4006e8:	48 83 c4 08          	add    rsp,0x8
  4006ec:	c3                   	ret    
