
./a.out:     file format elf64-x86-64


Disassembly of section .init:

00000000004004b0 <_init>:
  4004b0:	48 83 ec 08          	sub    $0x8,%rsp
  4004b4:	48 8b 05 3d 0b 20 00 	mov    0x200b3d(%rip),%rax        # 600ff8 <_DYNAMIC+0x1d0>
  4004bb:	48 85 c0             	test   %rax,%rax
  4004be:	74 05                	je     4004c5 <_init+0x15>
  4004c0:	e8 6b 00 00 00       	callq  400530 <setvbuf@plt+0x10>
  4004c5:	48 83 c4 08          	add    $0x8,%rsp
  4004c9:	c3                   	retq   

Disassembly of section .plt:

00000000004004d0 <puts@plt-0x10>:
  4004d0:	ff 35 32 0b 20 00    	pushq  0x200b32(%rip)        # 601008 <_GLOBAL_OFFSET_TABLE_+0x8>
  4004d6:	ff 25 34 0b 20 00    	jmpq   *0x200b34(%rip)        # 601010 <_GLOBAL_OFFSET_TABLE_+0x10>
  4004dc:	0f 1f 40 00          	nopl   0x0(%rax)

00000000004004e0 <puts@plt>:
  4004e0:	ff 25 32 0b 20 00    	jmpq   *0x200b32(%rip)        # 601018 <_GLOBAL_OFFSET_TABLE_+0x18>
  4004e6:	68 00 00 00 00       	pushq  $0x0
  4004eb:	e9 e0 ff ff ff       	jmpq   4004d0 <_init+0x20>

00000000004004f0 <system@plt>:
  4004f0:	ff 25 2a 0b 20 00    	jmpq   *0x200b2a(%rip)        # 601020 <_GLOBAL_OFFSET_TABLE_+0x20>
  4004f6:	68 01 00 00 00       	pushq  $0x1
  4004fb:	e9 d0 ff ff ff       	jmpq   4004d0 <_init+0x20>

0000000000400500 <__libc_start_main@plt>:
  400500:	ff 25 22 0b 20 00    	jmpq   *0x200b22(%rip)        # 601028 <_GLOBAL_OFFSET_TABLE_+0x28>
  400506:	68 02 00 00 00       	pushq  $0x2
  40050b:	e9 c0 ff ff ff       	jmpq   4004d0 <_init+0x20>

0000000000400510 <gets@plt>:
  400510:	ff 25 1a 0b 20 00    	jmpq   *0x200b1a(%rip)        # 601030 <_GLOBAL_OFFSET_TABLE_+0x30>
  400516:	68 03 00 00 00       	pushq  $0x3
  40051b:	e9 b0 ff ff ff       	jmpq   4004d0 <_init+0x20>

0000000000400520 <setvbuf@plt>:
  400520:	ff 25 12 0b 20 00    	jmpq   *0x200b12(%rip)        # 601038 <_GLOBAL_OFFSET_TABLE_+0x38>
  400526:	68 04 00 00 00       	pushq  $0x4
  40052b:	e9 a0 ff ff ff       	jmpq   4004d0 <_init+0x20>

Disassembly of section .plt.got:

0000000000400530 <.plt.got>:
  400530:	ff 25 c2 0a 20 00    	jmpq   *0x200ac2(%rip)        # 600ff8 <_DYNAMIC+0x1d0>
  400536:	66 90                	xchg   %ax,%ax

Disassembly of section .text:

0000000000400540 <_start>:
  400540:	31 ed                	xor    %ebp,%ebp
  400542:	49 89 d1             	mov    %rdx,%r9
  400545:	5e                   	pop    %rsi
  400546:	48 89 e2             	mov    %rsp,%rdx
  400549:	48 83 e4 f0          	and    $0xfffffffffffffff0,%rsp
  40054d:	50                   	push   %rax
  40054e:	54                   	push   %rsp
  40054f:	49 c7 c0 10 07 40 00 	mov    $0x400710,%r8
  400556:	48 c7 c1 a0 06 40 00 	mov    $0x4006a0,%rcx
  40055d:	48 c7 c7 4c 06 40 00 	mov    $0x40064c,%rdi
  400564:	e8 97 ff ff ff       	callq  400500 <__libc_start_main@plt>
  400569:	f4                   	hlt    
  40056a:	66 0f 1f 44 00 00    	nopw   0x0(%rax,%rax,1)

0000000000400570 <deregister_tm_clones>:
  400570:	b8 57 10 60 00       	mov    $0x601057,%eax
  400575:	55                   	push   %rbp
  400576:	48 2d 50 10 60 00    	sub    $0x601050,%rax
  40057c:	48 83 f8 0e          	cmp    $0xe,%rax
  400580:	48 89 e5             	mov    %rsp,%rbp
  400583:	76 1b                	jbe    4005a0 <deregister_tm_clones+0x30>
  400585:	b8 00 00 00 00       	mov    $0x0,%eax
  40058a:	48 85 c0             	test   %rax,%rax
  40058d:	74 11                	je     4005a0 <deregister_tm_clones+0x30>
  40058f:	5d                   	pop    %rbp
  400590:	bf 50 10 60 00       	mov    $0x601050,%edi
  400595:	ff e0                	jmpq   *%rax
  400597:	66 0f 1f 84 00 00 00 	nopw   0x0(%rax,%rax,1)
  40059e:	00 00 
  4005a0:	5d                   	pop    %rbp
  4005a1:	c3                   	retq   
  4005a2:	0f 1f 40 00          	nopl   0x0(%rax)
  4005a6:	66 2e 0f 1f 84 00 00 	nopw   %cs:0x0(%rax,%rax,1)
  4005ad:	00 00 00 

00000000004005b0 <register_tm_clones>:
  4005b0:	be 50 10 60 00       	mov    $0x601050,%esi
  4005b5:	55                   	push   %rbp
  4005b6:	48 81 ee 50 10 60 00 	sub    $0x601050,%rsi
  4005bd:	48 c1 fe 03          	sar    $0x3,%rsi
  4005c1:	48 89 e5             	mov    %rsp,%rbp
  4005c4:	48 89 f0             	mov    %rsi,%rax
  4005c7:	48 c1 e8 3f          	shr    $0x3f,%rax
  4005cb:	48 01 c6             	add    %rax,%rsi
  4005ce:	48 d1 fe             	sar    %rsi
  4005d1:	74 15                	je     4005e8 <register_tm_clones+0x38>
  4005d3:	b8 00 00 00 00       	mov    $0x0,%eax
  4005d8:	48 85 c0             	test   %rax,%rax
  4005db:	74 0b                	je     4005e8 <register_tm_clones+0x38>
  4005dd:	5d                   	pop    %rbp
  4005de:	bf 50 10 60 00       	mov    $0x601050,%edi
  4005e3:	ff e0                	jmpq   *%rax
  4005e5:	0f 1f 00             	nopl   (%rax)
  4005e8:	5d                   	pop    %rbp
  4005e9:	c3                   	retq   
  4005ea:	66 0f 1f 44 00 00    	nopw   0x0(%rax,%rax,1)

00000000004005f0 <__do_global_dtors_aux>:
  4005f0:	80 3d 61 0a 20 00 00 	cmpb   $0x0,0x200a61(%rip)        # 601058 <completed.7585>
  4005f7:	75 11                	jne    40060a <__do_global_dtors_aux+0x1a>
  4005f9:	55                   	push   %rbp
  4005fa:	48 89 e5             	mov    %rsp,%rbp
  4005fd:	e8 6e ff ff ff       	callq  400570 <deregister_tm_clones>
  400602:	5d                   	pop    %rbp
  400603:	c6 05 4e 0a 20 00 01 	movb   $0x1,0x200a4e(%rip)        # 601058 <completed.7585>
  40060a:	f3 c3                	repz retq 
  40060c:	0f 1f 40 00          	nopl   0x0(%rax)

0000000000400610 <frame_dummy>:
  400610:	bf 20 0e 60 00       	mov    $0x600e20,%edi
  400615:	48 83 3f 00          	cmpq   $0x0,(%rdi)
  400619:	75 05                	jne    400620 <frame_dummy+0x10>
  40061b:	eb 93                	jmp    4005b0 <register_tm_clones>
  40061d:	0f 1f 00             	nopl   (%rax)
  400620:	b8 00 00 00 00       	mov    $0x0,%eax
  400625:	48 85 c0             	test   %rax,%rax
  400628:	74 f1                	je     40061b <frame_dummy+0xb>
  40062a:	55                   	push   %rbp
  40062b:	48 89 e5             	mov    %rsp,%rbp
  40062e:	ff d0                	callq  *%rax
  400630:	5d                   	pop    %rbp
  400631:	e9 7a ff ff ff       	jmpq   4005b0 <register_tm_clones>

0000000000400636 <could_you_call_me>:
  400636:	55                   	push   %rbp
  400637:	48 89 e5             	mov    %rsp,%rbp
  40063a:	bf 28 07 40 00       	mov    $0x400728,%edi
  40063f:	b8 00 00 00 00       	mov    $0x0,%eax
  400644:	e8 a7 fe ff ff       	callq  4004f0 <system@plt>
  400649:	90                   	nop
  40064a:	5d                   	pop    %rbp
  40064b:	c3                   	retq   

000000000040064c <main>:
  40064c:	55                   	push   %rbp
  40064d:	48 89 e5             	mov    %rsp,%rbp
  400650:	48 83 ec 10          	sub    $0x10,%rsp
  400654:	48 8b 05 f5 09 20 00 	mov    0x2009f5(%rip),%rax        # 601050 <__TMC_END__>
  40065b:	b9 00 00 00 00       	mov    $0x0,%ecx
  400660:	ba 02 00 00 00       	mov    $0x2,%edx
  400665:	be 00 00 00 00       	mov    $0x0,%esi
  40066a:	48 89 c7             	mov    %rax,%rdi
  40066d:	e8 ae fe ff ff       	callq  400520 <setvbuf@plt>
  400672:	bf 40 07 40 00       	mov    $0x400740,%edi
  400677:	e8 64 fe ff ff       	callq  4004e0 <puts@plt>
  40067c:	48 8d 45 f0          	lea    -0x10(%rbp),%rax
  400680:	48 89 c7             	mov    %rax,%rdi
  400683:	b8 00 00 00 00       	mov    $0x0,%eax
  400688:	e8 83 fe ff ff       	callq  400510 <gets@plt>
  40068d:	b8 00 00 00 00       	mov    $0x0,%eax
  400692:	c9                   	leaveq 
  400693:	c3                   	retq   
  400694:	66 2e 0f 1f 84 00 00 	nopw   %cs:0x0(%rax,%rax,1)
  40069b:	00 00 00 
  40069e:	66 90                	xchg   %ax,%ax

00000000004006a0 <__libc_csu_init>:
  4006a0:	41 57                	push   %r15
  4006a2:	41 56                	push   %r14
  4006a4:	41 89 ff             	mov    %edi,%r15d
  4006a7:	41 55                	push   %r13
  4006a9:	41 54                	push   %r12
  4006ab:	4c 8d 25 5e 07 20 00 	lea    0x20075e(%rip),%r12        # 600e10 <__frame_dummy_init_array_entry>
  4006b2:	55                   	push   %rbp
  4006b3:	48 8d 2d 5e 07 20 00 	lea    0x20075e(%rip),%rbp        # 600e18 <__init_array_end>
  4006ba:	53                   	push   %rbx
  4006bb:	49 89 f6             	mov    %rsi,%r14
  4006be:	49 89 d5             	mov    %rdx,%r13
  4006c1:	4c 29 e5             	sub    %r12,%rbp
  4006c4:	48 83 ec 08          	sub    $0x8,%rsp
  4006c8:	48 c1 fd 03          	sar    $0x3,%rbp
  4006cc:	e8 df fd ff ff       	callq  4004b0 <_init>
  4006d1:	48 85 ed             	test   %rbp,%rbp
  4006d4:	74 20                	je     4006f6 <__libc_csu_init+0x56>
  4006d6:	31 db                	xor    %ebx,%ebx
  4006d8:	0f 1f 84 00 00 00 00 	nopl   0x0(%rax,%rax,1)
  4006df:	00 
  4006e0:	4c 89 ea             	mov    %r13,%rdx
  4006e3:	4c 89 f6             	mov    %r14,%rsi
  4006e6:	44 89 ff             	mov    %r15d,%edi
  4006e9:	41 ff 14 dc          	callq  *(%r12,%rbx,8)
  4006ed:	48 83 c3 01          	add    $0x1,%rbx
  4006f1:	48 39 eb             	cmp    %rbp,%rbx
  4006f4:	75 ea                	jne    4006e0 <__libc_csu_init+0x40>
  4006f6:	48 83 c4 08          	add    $0x8,%rsp
  4006fa:	5b                   	pop    %rbx
  4006fb:	5d                   	pop    %rbp
  4006fc:	41 5c                	pop    %r12
  4006fe:	41 5d                	pop    %r13
  400700:	41 5e                	pop    %r14
  400702:	41 5f                	pop    %r15
  400704:	c3                   	retq   
  400705:	90                   	nop
  400706:	66 2e 0f 1f 84 00 00 	nopw   %cs:0x0(%rax,%rax,1)
  40070d:	00 00 00 

0000000000400710 <__libc_csu_fini>:
  400710:	f3 c3                	repz retq 

Disassembly of section .fini:

0000000000400714 <_fini>:
  400714:	48 83 ec 08          	sub    $0x8,%rsp
  400718:	48 83 c4 08          	add    $0x8,%rsp
  40071c:	c3                   	retq   
