
luck:     file format elf64-x86-64


Disassembly of section .init:

0000000000400640 <_init>:
  400640:	48 83 ec 08          	sub    rsp,0x8
  400644:	48 8b 05 ad 09 20 00 	mov    rax,QWORD PTR [rip+0x2009ad]        # 600ff8 <_DYNAMIC+0x1d0>
  40064b:	48 85 c0             	test   rax,rax
  40064e:	74 05                	je     400655 <_init+0x15>
  400650:	e8 7b 00 00 00       	call   4006d0 <__gmon_start__@plt>
  400655:	48 83 c4 08          	add    rsp,0x8
  400659:	c3                   	ret    

Disassembly of section .plt:

0000000000400660 <puts@plt-0x10>:
  400660:	ff 35 a2 09 20 00    	push   QWORD PTR [rip+0x2009a2]        # 601008 <_GLOBAL_OFFSET_TABLE_+0x8>
  400666:	ff 25 a4 09 20 00    	jmp    QWORD PTR [rip+0x2009a4]        # 601010 <_GLOBAL_OFFSET_TABLE_+0x10>
  40066c:	0f 1f 40 00          	nop    DWORD PTR [rax+0x0]

0000000000400670 <puts@plt>:
  400670:	ff 25 a2 09 20 00    	jmp    QWORD PTR [rip+0x2009a2]        # 601018 <_GLOBAL_OFFSET_TABLE_+0x18>
  400676:	68 00 00 00 00       	push   0x0
  40067b:	e9 e0 ff ff ff       	jmp    400660 <_init+0x20>

0000000000400680 <system@plt>:
  400680:	ff 25 9a 09 20 00    	jmp    QWORD PTR [rip+0x20099a]        # 601020 <_GLOBAL_OFFSET_TABLE_+0x20>
  400686:	68 01 00 00 00       	push   0x1
  40068b:	e9 d0 ff ff ff       	jmp    400660 <_init+0x20>

0000000000400690 <printf@plt>:
  400690:	ff 25 92 09 20 00    	jmp    QWORD PTR [rip+0x200992]        # 601028 <_GLOBAL_OFFSET_TABLE_+0x28>
  400696:	68 02 00 00 00       	push   0x2
  40069b:	e9 c0 ff ff ff       	jmp    400660 <_init+0x20>

00000000004006a0 <read@plt>:
  4006a0:	ff 25 8a 09 20 00    	jmp    QWORD PTR [rip+0x20098a]        # 601030 <_GLOBAL_OFFSET_TABLE_+0x30>
  4006a6:	68 03 00 00 00       	push   0x3
  4006ab:	e9 b0 ff ff ff       	jmp    400660 <_init+0x20>

00000000004006b0 <__libc_start_main@plt>:
  4006b0:	ff 25 82 09 20 00    	jmp    QWORD PTR [rip+0x200982]        # 601038 <_GLOBAL_OFFSET_TABLE_+0x38>
  4006b6:	68 04 00 00 00       	push   0x4
  4006bb:	e9 a0 ff ff ff       	jmp    400660 <_init+0x20>

00000000004006c0 <srand@plt>:
  4006c0:	ff 25 7a 09 20 00    	jmp    QWORD PTR [rip+0x20097a]        # 601040 <_GLOBAL_OFFSET_TABLE_+0x40>
  4006c6:	68 05 00 00 00       	push   0x5
  4006cb:	e9 90 ff ff ff       	jmp    400660 <_init+0x20>

00000000004006d0 <__gmon_start__@plt>:
  4006d0:	ff 25 72 09 20 00    	jmp    QWORD PTR [rip+0x200972]        # 601048 <_GLOBAL_OFFSET_TABLE_+0x48>
  4006d6:	68 06 00 00 00       	push   0x6
  4006db:	e9 80 ff ff ff       	jmp    400660 <_init+0x20>

00000000004006e0 <time@plt>:
  4006e0:	ff 25 6a 09 20 00    	jmp    QWORD PTR [rip+0x20096a]        # 601050 <_GLOBAL_OFFSET_TABLE_+0x50>
  4006e6:	68 07 00 00 00       	push   0x7
  4006eb:	e9 70 ff ff ff       	jmp    400660 <_init+0x20>

00000000004006f0 <random@plt>:
  4006f0:	ff 25 62 09 20 00    	jmp    QWORD PTR [rip+0x200962]        # 601058 <_GLOBAL_OFFSET_TABLE_+0x58>
  4006f6:	68 08 00 00 00       	push   0x8
  4006fb:	e9 60 ff ff ff       	jmp    400660 <_init+0x20>

0000000000400700 <setvbuf@plt>:
  400700:	ff 25 5a 09 20 00    	jmp    QWORD PTR [rip+0x20095a]        # 601060 <_GLOBAL_OFFSET_TABLE_+0x60>
  400706:	68 09 00 00 00       	push   0x9
  40070b:	e9 50 ff ff ff       	jmp    400660 <_init+0x20>

0000000000400710 <__isoc99_scanf@plt>:
  400710:	ff 25 52 09 20 00    	jmp    QWORD PTR [rip+0x200952]        # 601068 <_GLOBAL_OFFSET_TABLE_+0x68>
  400716:	68 0a 00 00 00       	push   0xa
  40071b:	e9 40 ff ff ff       	jmp    400660 <_init+0x20>

0000000000400720 <exit@plt>:
  400720:	ff 25 4a 09 20 00    	jmp    QWORD PTR [rip+0x20094a]        # 601070 <_GLOBAL_OFFSET_TABLE_+0x70>
  400726:	68 0b 00 00 00       	push   0xb
  40072b:	e9 30 ff ff ff       	jmp    400660 <_init+0x20>

Disassembly of section .text:

0000000000400730 <_start>:
  400730:	31 ed                	xor    ebp,ebp
  400732:	49 89 d1             	mov    r9,rdx
  400735:	5e                   	pop    rsi
  400736:	48 89 e2             	mov    rdx,rsp
  400739:	48 83 e4 f0          	and    rsp,0xfffffffffffffff0
  40073d:	50                   	push   rax
  40073e:	54                   	push   rsp
  40073f:	49 c7 c0 d0 09 40 00 	mov    r8,0x4009d0
  400746:	48 c7 c1 60 09 40 00 	mov    rcx,0x400960
  40074d:	48 c7 c7 1d 08 40 00 	mov    rdi,0x40081d
  400754:	e8 57 ff ff ff       	call   4006b0 <__libc_start_main@plt>
  400759:	f4                   	hlt    
  40075a:	66 0f 1f 44 00 00    	nop    WORD PTR [rax+rax*1+0x0]

0000000000400760 <deregister_tm_clones>:
  400760:	b8 8f 10 60 00       	mov    eax,0x60108f
  400765:	55                   	push   rbp
  400766:	48 2d 88 10 60 00    	sub    rax,0x601088
  40076c:	48 83 f8 0e          	cmp    rax,0xe
  400770:	48 89 e5             	mov    rbp,rsp
  400773:	77 02                	ja     400777 <deregister_tm_clones+0x17>
  400775:	5d                   	pop    rbp
  400776:	c3                   	ret    
  400777:	b8 00 00 00 00       	mov    eax,0x0
  40077c:	48 85 c0             	test   rax,rax
  40077f:	74 f4                	je     400775 <deregister_tm_clones+0x15>
  400781:	5d                   	pop    rbp
  400782:	bf 88 10 60 00       	mov    edi,0x601088
  400787:	ff e0                	jmp    rax
  400789:	0f 1f 80 00 00 00 00 	nop    DWORD PTR [rax+0x0]

0000000000400790 <register_tm_clones>:
  400790:	b8 88 10 60 00       	mov    eax,0x601088
  400795:	55                   	push   rbp
  400796:	48 2d 88 10 60 00    	sub    rax,0x601088
  40079c:	48 c1 f8 03          	sar    rax,0x3
  4007a0:	48 89 e5             	mov    rbp,rsp
  4007a3:	48 89 c2             	mov    rdx,rax
  4007a6:	48 c1 ea 3f          	shr    rdx,0x3f
  4007aa:	48 01 d0             	add    rax,rdx
  4007ad:	48 d1 f8             	sar    rax,1
  4007b0:	75 02                	jne    4007b4 <register_tm_clones+0x24>
  4007b2:	5d                   	pop    rbp
  4007b3:	c3                   	ret    
  4007b4:	ba 00 00 00 00       	mov    edx,0x0
  4007b9:	48 85 d2             	test   rdx,rdx
  4007bc:	74 f4                	je     4007b2 <register_tm_clones+0x22>
  4007be:	5d                   	pop    rbp
  4007bf:	48 89 c6             	mov    rsi,rax
  4007c2:	bf 88 10 60 00       	mov    edi,0x601088
  4007c7:	ff e2                	jmp    rdx
  4007c9:	0f 1f 80 00 00 00 00 	nop    DWORD PTR [rax+0x0]

00000000004007d0 <__do_global_dtors_aux>:
  4007d0:	80 3d c1 08 20 00 00 	cmp    BYTE PTR [rip+0x2008c1],0x0        # 601098 <completed.6973>
  4007d7:	75 11                	jne    4007ea <__do_global_dtors_aux+0x1a>
  4007d9:	55                   	push   rbp
  4007da:	48 89 e5             	mov    rbp,rsp
  4007dd:	e8 7e ff ff ff       	call   400760 <deregister_tm_clones>
  4007e2:	5d                   	pop    rbp
  4007e3:	c6 05 ae 08 20 00 01 	mov    BYTE PTR [rip+0x2008ae],0x1        # 601098 <completed.6973>
  4007ea:	f3 c3                	repz ret 
  4007ec:	0f 1f 40 00          	nop    DWORD PTR [rax+0x0]

00000000004007f0 <frame_dummy>:
  4007f0:	48 83 3d 28 06 20 00 	cmp    QWORD PTR [rip+0x200628],0x0        # 600e20 <__JCR_END__>
  4007f7:	00 
  4007f8:	74 1e                	je     400818 <frame_dummy+0x28>
  4007fa:	b8 00 00 00 00       	mov    eax,0x0
  4007ff:	48 85 c0             	test   rax,rax
  400802:	74 14                	je     400818 <frame_dummy+0x28>
  400804:	55                   	push   rbp
  400805:	bf 20 0e 60 00       	mov    edi,0x600e20
  40080a:	48 89 e5             	mov    rbp,rsp
  40080d:	ff d0                	call   rax
  40080f:	5d                   	pop    rbp
  400810:	e9 7b ff ff ff       	jmp    400790 <register_tm_clones>
  400815:	0f 1f 00             	nop    DWORD PTR [rax]
  400818:	e9 73 ff ff ff       	jmp    400790 <register_tm_clones>

000000000040081d <main>:
  40081d:	55                   	push   rbp
  40081e:	48 89 e5             	mov    rbp,rsp
  400821:	48 83 ec 20          	sub    rsp,0x20
  400825:	48 8b 05 64 08 20 00 	mov    rax,QWORD PTR [rip+0x200864]        # 601090 <stdout@@GLIBC_2.2.5>
  40082c:	b9 00 00 00 00       	mov    ecx,0x0
  400831:	ba 02 00 00 00       	mov    edx,0x2
  400836:	be 00 00 00 00       	mov    esi,0x0
  40083b:	48 89 c7             	mov    rdi,rax
  40083e:	e8 bd fe ff ff       	call   400700 <setvbuf@plt>
  400843:	bf 00 00 00 00       	mov    edi,0x0
  400848:	b8 00 00 00 00       	mov    eax,0x0
  40084d:	e8 8e fe ff ff       	call   4006e0 <time@plt>
  400852:	89 45 f0             	mov    DWORD PTR [rbp-0x10],eax
  400855:	8b 45 f0             	mov    eax,DWORD PTR [rbp-0x10]
  400858:	89 c7                	mov    edi,eax
  40085a:	e8 61 fe ff ff       	call   4006c0 <srand@plt>
  40085f:	bf e8 09 40 00       	mov    edi,0x4009e8
  400864:	e8 07 fe ff ff       	call   400670 <puts@plt>
  400869:	c7 45 e8 00 00 00 00 	mov    DWORD PTR [rbp-0x18],0x0
  400870:	c7 45 f4 01 00 00 00 	mov    DWORD PTR [rbp-0xc],0x1
  400877:	c7 45 f8 02 00 00 00 	mov    DWORD PTR [rbp-0x8],0x2
  40087e:	e8 6d fe ff ff       	call   4006f0 <random@plt>
  400883:	89 45 fc             	mov    DWORD PTR [rbp-0x4],eax
  400886:	bf f3 09 40 00       	mov    edi,0x4009f3
  40088b:	e8 e0 fd ff ff       	call   400670 <puts@plt>
  400890:	48 8d 45 e8          	lea    rax,[rbp-0x18]
  400894:	ba 64 00 00 00       	mov    edx,0x64
  400899:	48 89 c6             	mov    rsi,rax
  40089c:	bf 00 00 00 00       	mov    edi,0x0
  4008a1:	b8 00 00 00 00       	mov    eax,0x0
  4008a6:	e8 f5 fd ff ff       	call   4006a0 <read@plt>
  4008ab:	48 8d 45 e8          	lea    rax,[rbp-0x18]
  4008af:	48 89 c6             	mov    rsi,rax
  4008b2:	bf 10 0a 40 00       	mov    edi,0x400a10
  4008b7:	b8 00 00 00 00       	mov    eax,0x0
  4008bc:	e8 cf fd ff ff       	call   400690 <printf@plt>
  4008c1:	81 7d f4 0c b0 ce fa 	cmp    DWORD PTR [rbp-0xc],0xfaceb00c
  4008c8:	75 74                	jne    40093e <main+0x121>
  4008ca:	81 7d f8 ef be ad de 	cmp    DWORD PTR [rbp-0x8],0xdeadbeef
  4008d1:	75 6b                	jne    40093e <main+0x121>
  4008d3:	bf 20 0a 40 00       	mov    edi,0x400a20
  4008d8:	e8 93 fd ff ff       	call   400670 <puts@plt>
  4008dd:	bf 48 0a 40 00       	mov    edi,0x400a48
  4008e2:	e8 89 fd ff ff       	call   400670 <puts@plt>
  4008e7:	bf 89 0a 40 00       	mov    edi,0x400a89
  4008ec:	b8 00 00 00 00       	mov    eax,0x0
  4008f1:	e8 9a fd ff ff       	call   400690 <printf@plt>
  4008f6:	48 8d 45 ec          	lea    rax,[rbp-0x14]
  4008fa:	48 89 c6             	mov    rsi,rax
  4008fd:	bf 93 0a 40 00       	mov    edi,0x400a93
  400902:	b8 00 00 00 00       	mov    eax,0x0
  400907:	e8 04 fe ff ff       	call   400710 <__isoc99_scanf@plt>
  40090c:	8b 45 ec             	mov    eax,DWORD PTR [rbp-0x14]
  40090f:	3b 45 fc             	cmp    eax,DWORD PTR [rbp-0x4]
  400912:	75 16                	jne    40092a <main+0x10d>
  400914:	bf 96 0a 40 00       	mov    edi,0x400a96
  400919:	e8 52 fd ff ff       	call   400670 <puts@plt>
  40091e:	bf aa 0a 40 00       	mov    edi,0x400aaa
  400923:	e8 58 fd ff ff       	call   400680 <system@plt>
  400928:	eb 14                	jmp    40093e <main+0x121>
  40092a:	bf ad 0a 40 00       	mov    edi,0x400aad
  40092f:	e8 3c fd ff ff       	call   400670 <puts@plt>
  400934:	bf 00 00 00 00       	mov    edi,0x0
  400939:	e8 e2 fd ff ff       	call   400720 <exit@plt>
  40093e:	bf b9 0a 40 00       	mov    edi,0x400ab9
  400943:	e8 28 fd ff ff       	call   400670 <puts@plt>
  400948:	bf 00 00 00 00       	mov    edi,0x0
  40094d:	e8 ce fd ff ff       	call   400720 <exit@plt>
  400952:	66 2e 0f 1f 84 00 00 	nop    WORD PTR cs:[rax+rax*1+0x0]
  400959:	00 00 00 
  40095c:	0f 1f 40 00          	nop    DWORD PTR [rax+0x0]

0000000000400960 <__libc_csu_init>:
  400960:	41 57                	push   r15
  400962:	41 89 ff             	mov    r15d,edi
  400965:	41 56                	push   r14
  400967:	49 89 f6             	mov    r14,rsi
  40096a:	41 55                	push   r13
  40096c:	49 89 d5             	mov    r13,rdx
  40096f:	41 54                	push   r12
  400971:	4c 8d 25 98 04 20 00 	lea    r12,[rip+0x200498]        # 600e10 <__frame_dummy_init_array_entry>
  400978:	55                   	push   rbp
  400979:	48 8d 2d 98 04 20 00 	lea    rbp,[rip+0x200498]        # 600e18 <__init_array_end>
  400980:	53                   	push   rbx
  400981:	4c 29 e5             	sub    rbp,r12
  400984:	31 db                	xor    ebx,ebx
  400986:	48 c1 fd 03          	sar    rbp,0x3
  40098a:	48 83 ec 08          	sub    rsp,0x8
  40098e:	e8 ad fc ff ff       	call   400640 <_init>
  400993:	48 85 ed             	test   rbp,rbp
  400996:	74 1e                	je     4009b6 <__libc_csu_init+0x56>
  400998:	0f 1f 84 00 00 00 00 	nop    DWORD PTR [rax+rax*1+0x0]
  40099f:	00 
  4009a0:	4c 89 ea             	mov    rdx,r13
  4009a3:	4c 89 f6             	mov    rsi,r14
  4009a6:	44 89 ff             	mov    edi,r15d
  4009a9:	41 ff 14 dc          	call   QWORD PTR [r12+rbx*8]
  4009ad:	48 83 c3 01          	add    rbx,0x1
  4009b1:	48 39 eb             	cmp    rbx,rbp
  4009b4:	75 ea                	jne    4009a0 <__libc_csu_init+0x40>
  4009b6:	48 83 c4 08          	add    rsp,0x8
  4009ba:	5b                   	pop    rbx
  4009bb:	5d                   	pop    rbp
  4009bc:	41 5c                	pop    r12
  4009be:	41 5d                	pop    r13
  4009c0:	41 5e                	pop    r14
  4009c2:	41 5f                	pop    r15
  4009c4:	c3                   	ret    
  4009c5:	66 66 2e 0f 1f 84 00 	data16 nop WORD PTR cs:[rax+rax*1+0x0]
  4009cc:	00 00 00 00 

00000000004009d0 <__libc_csu_fini>:
  4009d0:	f3 c3                	repz ret 

Disassembly of section .fini:

00000000004009d4 <_fini>:
  4009d4:	48 83 ec 08          	sub    rsp,0x8
  4009d8:	48 83 c4 08          	add    rsp,0x8
  4009dc:	c3                   	ret    
